; ModuleID = '2/603.c'
source_filename = "2/603.c"
target datalayout = "e-m:e-p270:32:32-p271:32:32-p272:64:64-i64:64-f80:128-n8:16:32:64-S128"
target triple = "x86_64-pc-linux-gnu"

%struct.book = type { i32, [27 x i8] }
%struct.author = type { i32, [1000 x i32] }

@.str = private unnamed_addr constant [3 x i8] c"%d\00", align 1
@.str.1 = private unnamed_addr constant [6 x i8] c"%d %s\00", align 1
@.str.2 = private unnamed_addr constant [4 x i8] c"%c\0A\00", align 1
@.str.3 = private unnamed_addr constant [4 x i8] c"%d\0A\00", align 1

; Function Attrs: noinline nounwind uwtable
define dso_local i32 @main() #0 {
  %1 = alloca i32, align 4
  %2 = alloca i32, align 4
  %3 = alloca i32, align 4
  %4 = alloca i32, align 4
  %5 = alloca i32, align 4
  %6 = alloca i32, align 4
  %7 = alloca i8, align 1
  %8 = alloca [1000 x %struct.book], align 16
  %9 = alloca [91 x %struct.author], align 16
  %10 = alloca %struct.author, align 4
  store i32 0, i32* %1, align 4
  store i32 0, i32* %6, align 4
  %11 = call i32 (i8*, ...) @__isoc99_scanf(i8* getelementptr inbounds ([3 x i8], [3 x i8]* @.str, i64 0, i64 0), i32* %2)
  store i32 0, i32* %4, align 4
  br label %12

12:                                               ; preds = %20, %0
  %13 = load i32, i32* %4, align 4
  %14 = icmp slt i32 %13, 91
  br i1 %14, label %15, label %23

15:                                               ; preds = %12
  %16 = load i32, i32* %4, align 4
  %17 = sext i32 %16 to i64
  %18 = getelementptr inbounds [91 x %struct.author], [91 x %struct.author]* %9, i64 0, i64 %17
  %19 = getelementptr inbounds %struct.author, %struct.author* %18, i32 0, i32 0
  store i32 0, i32* %19, align 4
  br label %20

20:                                               ; preds = %15
  %21 = load i32, i32* %4, align 4
  %22 = add nsw i32 %21, 1
  store i32 %22, i32* %4, align 4
  br label %12

23:                                               ; preds = %12
  store i32 0, i32* %3, align 4
  br label %24

24:                                               ; preds = %86, %23
  %25 = load i32, i32* %3, align 4
  %26 = load i32, i32* %2, align 4
  %27 = icmp slt i32 %25, %26
  br i1 %27, label %28, label %89

28:                                               ; preds = %24
  %29 = load i32, i32* %3, align 4
  %30 = sext i32 %29 to i64
  %31 = getelementptr inbounds [1000 x %struct.book], [1000 x %struct.book]* %8, i64 0, i64 %30
  %32 = getelementptr inbounds %struct.book, %struct.book* %31, i32 0, i32 0
  %33 = load i32, i32* %3, align 4
  %34 = sext i32 %33 to i64
  %35 = getelementptr inbounds [1000 x %struct.book], [1000 x %struct.book]* %8, i64 0, i64 %34
  %36 = getelementptr inbounds %struct.book, %struct.book* %35, i32 0, i32 1
  %37 = getelementptr inbounds [27 x i8], [27 x i8]* %36, i64 0, i64 0
  %38 = call i32 (i8*, ...) @__isoc99_scanf(i8* getelementptr inbounds ([6 x i8], [6 x i8]* @.str.1, i64 0, i64 0), i32* %32, i8* %37)
  %39 = load i32, i32* %3, align 4
  %40 = sext i32 %39 to i64
  %41 = getelementptr inbounds [1000 x %struct.book], [1000 x %struct.book]* %8, i64 0, i64 %40
  %42 = getelementptr inbounds %struct.book, %struct.book* %41, i32 0, i32 1
  %43 = getelementptr inbounds [27 x i8], [27 x i8]* %42, i64 0, i64 0
  %44 = call i64 @strlen(i8* %43) #4
  %45 = trunc i64 %44 to i32
  store i32 %45, i32* %5, align 4
  store i32 0, i32* %4, align 4
  br label %46

46:                                               ; preds = %82, %28
  %47 = load i32, i32* %4, align 4
  %48 = load i32, i32* %5, align 4
  %49 = icmp slt i32 %47, %48
  br i1 %49, label %50, label %85

50:                                               ; preds = %46
  %51 = load i32, i32* %3, align 4
  %52 = sext i32 %51 to i64
  %53 = getelementptr inbounds [1000 x %struct.book], [1000 x %struct.book]* %8, i64 0, i64 %52
  %54 = getelementptr inbounds %struct.book, %struct.book* %53, i32 0, i32 0
  %55 = load i32, i32* %54, align 16
  %56 = load i32, i32* %3, align 4
  %57 = sext i32 %56 to i64
  %58 = getelementptr inbounds [1000 x %struct.book], [1000 x %struct.book]* %8, i64 0, i64 %57
  %59 = getelementptr inbounds %struct.book, %struct.book* %58, i32 0, i32 1
  %60 = load i32, i32* %4, align 4
  %61 = sext i32 %60 to i64
  %62 = getelementptr inbounds [27 x i8], [27 x i8]* %59, i64 0, i64 %61
  %63 = load i8, i8* %62, align 1
  %64 = sext i8 %63 to i64
  %65 = getelementptr inbounds [91 x %struct.author], [91 x %struct.author]* %9, i64 0, i64 %64
  %66 = getelementptr inbounds %struct.author, %struct.author* %65, i32 0, i32 1
  %67 = load i32, i32* %3, align 4
  %68 = sext i32 %67 to i64
  %69 = getelementptr inbounds [1000 x %struct.book], [1000 x %struct.book]* %8, i64 0, i64 %68
  %70 = getelementptr inbounds %struct.book, %struct.book* %69, i32 0, i32 1
  %71 = load i32, i32* %4, align 4
  %72 = sext i32 %71 to i64
  %73 = getelementptr inbounds [27 x i8], [27 x i8]* %70, i64 0, i64 %72
  %74 = load i8, i8* %73, align 1
  %75 = sext i8 %74 to i64
  %76 = getelementptr inbounds [91 x %struct.author], [91 x %struct.author]* %9, i64 0, i64 %75
  %77 = getelementptr inbounds %struct.author, %struct.author* %76, i32 0, i32 0
  %78 = load i32, i32* %77, align 4
  %79 = add nsw i32 %78, 1
  store i32 %79, i32* %77, align 4
  %80 = sext i32 %78 to i64
  %81 = getelementptr inbounds [1000 x i32], [1000 x i32]* %66, i64 0, i64 %80
  store i32 %55, i32* %81, align 4
  br label %82

82:                                               ; preds = %50
  %83 = load i32, i32* %4, align 4
  %84 = add nsw i32 %83, 1
  store i32 %84, i32* %4, align 4
  br label %46

85:                                               ; preds = %46
  br label %86

86:                                               ; preds = %85
  %87 = load i32, i32* %3, align 4
  %88 = add nsw i32 %87, 1
  store i32 %88, i32* %3, align 4
  br label %24

89:                                               ; preds = %24
  store i32 0, i32* %4, align 4
  br label %90

90:                                               ; preds = %115, %89
  %91 = load i32, i32* %4, align 4
  %92 = icmp slt i32 %91, 91
  br i1 %92, label %93, label %118

93:                                               ; preds = %90
  %94 = load i32, i32* %4, align 4
  %95 = sext i32 %94 to i64
  %96 = getelementptr inbounds [91 x %struct.author], [91 x %struct.author]* %9, i64 0, i64 %95
  %97 = getelementptr inbounds %struct.author, %struct.author* %96, i32 0, i32 0
  %98 = load i32, i32* %97, align 4
  %99 = load i32, i32* %6, align 4
  %100 = icmp sgt i32 %98, %99
  br i1 %100, label %101, label %114

101:                                              ; preds = %93
  %102 = load i32, i32* %4, align 4
  %103 = sext i32 %102 to i64
  %104 = getelementptr inbounds [91 x %struct.author], [91 x %struct.author]* %9, i64 0, i64 %103
  %105 = bitcast %struct.author* %10 to i8*
  %106 = bitcast %struct.author* %104 to i8*
  call void @llvm.memcpy.p0i8.p0i8.i64(i8* align 4 %105, i8* align 4 %106, i64 4004, i1 false)
  %107 = load i32, i32* %4, align 4
  %108 = trunc i32 %107 to i8
  store i8 %108, i8* %7, align 1
  %109 = load i32, i32* %4, align 4
  %110 = sext i32 %109 to i64
  %111 = getelementptr inbounds [91 x %struct.author], [91 x %struct.author]* %9, i64 0, i64 %110
  %112 = getelementptr inbounds %struct.author, %struct.author* %111, i32 0, i32 0
  %113 = load i32, i32* %112, align 4
  store i32 %113, i32* %6, align 4
  br label %114

114:                                              ; preds = %101, %93
  br label %115

115:                                              ; preds = %114
  %116 = load i32, i32* %4, align 4
  %117 = add nsw i32 %116, 1
  store i32 %117, i32* %4, align 4
  br label %90

118:                                              ; preds = %90
  %119 = load i8, i8* %7, align 1
  %120 = sext i8 %119 to i32
  %121 = call i32 (i8*, ...) @printf(i8* getelementptr inbounds ([4 x i8], [4 x i8]* @.str.2, i64 0, i64 0), i32 %120)
  %122 = getelementptr inbounds %struct.author, %struct.author* %10, i32 0, i32 0
  %123 = load i32, i32* %122, align 4
  %124 = call i32 (i8*, ...) @printf(i8* getelementptr inbounds ([4 x i8], [4 x i8]* @.str.3, i64 0, i64 0), i32 %123)
  store i32 0, i32* %3, align 4
  br label %125

125:                                              ; preds = %137, %118
  %126 = load i32, i32* %3, align 4
  %127 = getelementptr inbounds %struct.author, %struct.author* %10, i32 0, i32 0
  %128 = load i32, i32* %127, align 4
  %129 = icmp slt i32 %126, %128
  br i1 %129, label %130, label %140

130:                                              ; preds = %125
  %131 = getelementptr inbounds %struct.author, %struct.author* %10, i32 0, i32 1
  %132 = load i32, i32* %3, align 4
  %133 = sext i32 %132 to i64
  %134 = getelementptr inbounds [1000 x i32], [1000 x i32]* %131, i64 0, i64 %133
  %135 = load i32, i32* %134, align 4
  %136 = call i32 (i8*, ...) @printf(i8* getelementptr inbounds ([4 x i8], [4 x i8]* @.str.3, i64 0, i64 0), i32 %135)
  br label %137

137:                                              ; preds = %130
  %138 = load i32, i32* %3, align 4
  %139 = add nsw i32 %138, 1
  store i32 %139, i32* %3, align 4
  br label %125

140:                                              ; preds = %125
  ret i32 0
}

declare dso_local i32 @__isoc99_scanf(i8*, ...) #1

; Function Attrs: nounwind readonly
declare dso_local i64 @strlen(i8*) #2

; Function Attrs: argmemonly nounwind willreturn
declare void @llvm.memcpy.p0i8.p0i8.i64(i8* noalias nocapture writeonly, i8* noalias nocapture readonly, i64, i1 immarg) #3

declare dso_local i32 @printf(i8*, ...) #1


!llvm.module.flags = !{!0}
!llvm.ident = !{!1}

!0 = !{i32 1, !"wchar_size", i32 4}
!1 = !{!"clang version 10.0.0-4ubuntu1 "}
